target datalayout = "e-m:e-p270:32:32-p271:32:32-p272:64:64-i64:64-i128:128-f80:128-n8:16:32:64-S128"
target triple = "x86_64-pc-linux-gnu"

%"class.std::__cxx11::basic_string" = type { %"struct.std::__cxx11::basic_string<char>::_Alloc_hider", i64, %union.anon }
%"struct.std::__cxx11::basic_string<char>::_Alloc_hider" = type { ptr }
%union.anon = type { i64, [8 x i8] }
%"class.std::shared_ptr" = type { %"class.std::__shared_ptr" }
%"class.std::__shared_ptr" = type { ptr, %"class.std::__shared_count" }
%"class.std::__shared_count" = type { ptr }
%"class.std::vector" = type { %"struct.std::_Vector_base" }
%"struct.std::_Vector_base" = type { %"struct.std::_Vector_base<open_spiel::State::PlayerAction, std::allocator<open_spiel::State::PlayerAction>>::_Vector_impl" }
%"struct.std::_Vector_base<open_spiel::State::PlayerAction, std::allocator<open_spiel::State::PlayerAction>>::_Vector_impl" = type { %"struct.std::_Vector_base<open_spiel::State::PlayerAction, std::allocator<open_spiel::State::PlayerAction>>::_Vector_impl_data" }
%"struct.std::_Vector_base<open_spiel::State::PlayerAction, std::allocator<open_spiel::State::PlayerAction>>::_Vector_impl_data" = type { ptr, ptr, ptr }
%"class.open_spiel::State" = type <{ ptr, %"class.std::shared_ptr", i32, i32, %"class.std::vector", i32, [4 x i8] }>

@.str.12 = private unnamed_addr constant [2 x i8] c" \00", align 1
@.str.16 = private unnamed_addr constant [142 x i8] c"generated/home/dtcxzyw/WorkSpace/Projects/compilers/llvm-opt-benchmark/bench/openspiel/open_spiel/open_spiel/games/tiny_hanabi/tiny_hanabi.cc\00", align 1
@.str.17 = private unnamed_addr constant [2 x i8] c":\00", align 1
@.str.18 = private unnamed_addr constant [12 x i8] c"player >= 0\00", align 1
@.str.19 = private unnamed_addr constant [8 x i8] c"\0Aplayer\00", align 1
@.str.20 = private unnamed_addr constant [4 x i8] c" = \00", align 1
@.str.21 = private unnamed_addr constant [7 x i8] c", 0 = \00", align 1
@.str.22 = private unnamed_addr constant [22 x i8] c"player < num_players_\00", align 1
@.str.23 = private unnamed_addr constant [18 x i8] c", num_players_ = \00", align 1

; Function Attrs: mustprogress uwtable
define void @_ZNK10open_spiel11tiny_hanabi15TinyHanabiState17ObservationStringB5cxx11Ei(ptr dead_on_unwind noalias writable sret(%"class.std::__cxx11::basic_string") align 8 %0, ptr noundef nonnull align 8 dereferenceable(104) %1, i32 noundef %2) unnamed_addr #4 align 2 personality ptr @__gxx_personality_v0 {
  %4 = alloca ptr, align 8
  %5 = alloca ptr, align 8
  %6 = alloca i32, align 4
  %7 = alloca i32, align 4
  %8 = alloca i32, align 4
  %9 = alloca %"class.std::__cxx11::basic_string", align 8
  %10 = alloca i32, align 4
  %11 = alloca ptr, align 8
  %12 = alloca i32, align 4
  %13 = alloca i32, align 4
  %14 = alloca i32, align 4
  %15 = alloca %"class.std::__cxx11::basic_string", align 8
  %16 = alloca i32, align 4
  store ptr %0, ptr %4, align 8
  store ptr %1, ptr %5, align 8
  store i32 %2, ptr %6, align 4
  %17 = load ptr, ptr %5, align 8
  br label %18

18:                                               ; preds = %3
  %19 = load i32, ptr %6, align 4
  store i32 %19, ptr %7, align 4
  store i32 0, ptr %8, align 4
  %20 = load i32, ptr %7, align 4
  %21 = load i32, ptr %8, align 4
  %22 = icmp sge i32 %20, %21
  br i1 %22, label %29, label %23

23:                                               ; preds = %18
  store i32 196, ptr %10, align 4
  call void @_ZN10open_spiel8internal11SpielStrCatIJRA142_KcRA2_S2_iS6_RA12_S2_RA8_S2_RA4_S2_RiRA7_S2_SD_EEENSt7__cxx1112basic_stringIcSt11char_traitsIcESaIcEEEDpOT_(ptr dead_on_unwind writable sret(%"class.std::__cxx11::basic_string") align 8 %9, ptr noundef nonnull align 1 dereferenceable(142) @.str.16, ptr noundef nonnull align 1 dereferenceable(2) @.str.17, ptr noundef nonnull align 4 dereferenceable(4) %10, ptr noundef nonnull align 1 dereferenceable(2) @.str.12, ptr noundef nonnull align 1 dereferenceable(12) @.str.18, ptr noundef nonnull align 1 dereferenceable(8) @.str.19, ptr noundef nonnull align 1 dereferenceable(4) @.str.20, ptr noundef nonnull align 4 dereferenceable(4) %7, ptr noundef nonnull align 1 dereferenceable(7) @.str.21, ptr noundef nonnull align 4 dereferenceable(4) %8)
  invoke void @_ZN10open_spiel15SpielFatalErrorERKNSt7__cxx1112basic_stringIcSt11char_traitsIcESaIcEEE(ptr noundef nonnull align 8 dereferenceable(32) %9) #16
          to label %24 unwind label %25

24:                                               ; preds = %23
  unreachable

25:                                               ; preds = %23
  %26 = landingpad { ptr, i32 }
          cleanup
  %27 = extractvalue { ptr, i32 } %26, 0
  store ptr %27, ptr %11, align 8
  %28 = extractvalue { ptr, i32 } %26, 1
  store i32 %28, ptr %12, align 4
  call void @_ZNSt7__cxx1112basic_stringIcSt11char_traitsIcESaIcEED1Ev(ptr noundef nonnull align 8 dereferenceable(32) %9) #3
  br label %50

29:                                               ; preds = %18
  br label %30

30:                                               ; preds = %29
  br label %31

31:                                               ; preds = %30
  %32 = load i32, ptr %6, align 4
  store i32 %32, ptr %13, align 4
  %33 = getelementptr inbounds nuw %"class.open_spiel::State", ptr %17, i32 0, i32 3
  %34 = load i32, ptr %33, align 4
  store i32 %34, ptr %14, align 4
  %35 = load i32, ptr %13, align 4
  %36 = load i32, ptr %14, align 4
  %37 = icmp slt i32 %35, %36
  br i1 %37, label %44, label %38

38:                                               ; preds = %31
  store i32 197, ptr %16, align 4
  call void @_ZN10open_spiel8internal11SpielStrCatIJRA142_KcRA2_S2_iS6_RA22_S2_RA8_S2_RA4_S2_RiRA18_S2_SD_EEENSt7__cxx1112basic_stringIcSt11char_traitsIcESaIcEEEDpOT_(ptr dead_on_unwind writable sret(%"class.std::__cxx11::basic_string") align 8 %15, ptr noundef nonnull align 1 dereferenceable(142) @.str.16, ptr noundef nonnull align 1 dereferenceable(2) @.str.17, ptr noundef nonnull align 4 dereferenceable(4) %16, ptr noundef nonnull align 1 dereferenceable(2) @.str.12, ptr noundef nonnull align 1 dereferenceable(22) @.str.22, ptr noundef nonnull align 1 dereferenceable(8) @.str.19, ptr noundef nonnull align 1 dereferenceable(4) @.str.20, ptr noundef nonnull align 4 dereferenceable(4) %13, ptr noundef nonnull align 1 dereferenceable(18) @.str.23, ptr noundef nonnull align 4 dereferenceable(4) %14)
  invoke void @_ZN10open_spiel15SpielFatalErrorERKNSt7__cxx1112basic_stringIcSt11char_traitsIcESaIcEEE(ptr noundef nonnull align 8 dereferenceable(32) %15) #16
          to label %39 unwind label %40

39:                                               ; preds = %38
  unreachable

40:                                               ; preds = %38
  %41 = landingpad { ptr, i32 }
          cleanup
  %42 = extractvalue { ptr, i32 } %41, 0
  store ptr %42, ptr %11, align 8
  %43 = extractvalue { ptr, i32 } %41, 1
  store i32 %43, ptr %12, align 4
  call void @_ZNSt7__cxx1112basic_stringIcSt11char_traitsIcESaIcEED1Ev(ptr noundef nonnull align 8 dereferenceable(32) %15) #3
  br label %50

44:                                               ; preds = %31
  br label %45

45:                                               ; preds = %44
  %46 = load i32, ptr %6, align 4
  %47 = load ptr, ptr %17, align 8
  %48 = getelementptr inbounds ptr, ptr %47, i64 19
  %49 = load ptr, ptr %48, align 8
  call void %49(ptr dead_on_unwind writable sret(%"class.std::__cxx11::basic_string") align 8 %0, ptr noundef nonnull align 8 dereferenceable(104) %17, i32 noundef %46)
  ret void

50:                                               ; preds = %40, %25
  %51 = load ptr, ptr %11, align 8
  %52 = load i32, ptr %12, align 4
  %53 = insertvalue { ptr, i32 } poison, ptr %51, 0
  %54 = insertvalue { ptr, i32 } %53, i32 %52, 1
  resume { ptr, i32 } %54
}